target datalayout = "e-m:e-p270:32:32-p271:32:32-p272:64:64-i64:64-i128:128-f80:128-n8:16:32:64-S128"
target triple = "x86_64-pc-linux-gnu"

%struct._packet_info = type { ptr, ptr, i32, i32, %struct.nstime_t, %struct.nstime_t, %struct.nstime_t, i32, ptr, ptr, ptr, ptr, %struct._address, %struct._address, %struct._address, %struct._address, %struct._address, %struct._address, i32, ptr, i32, %struct.anon, i32, i32, i32, i32, ptr, i32, ptr, ptr, i16, i16, i32, i32, i16, i32, i32, ptr, ptr, ptr, i8, i8, i16, i16, i16, i32, i16, i16, ptr, ptr, ptr, ptr, ptr, i32 }
%struct.nstime_t = type { i64, i32 }
%struct._address = type { i32, i32, ptr, ptr }
%struct.anon = type { i8, [3 x i8] }

@hf_ubx_nav_timegps = internal global i32 0, align 4
@.str.356 = private unnamed_addr constant [16 x i8] c"UBX-NAV-TIMEGPS\00", align 1
@hf_ubx_nav_timegps_itow = internal global i32 0, align 4
@hf_ubx_nav_timegps_ftow = internal global i32 0, align 4
@hf_ubx_nav_timegps_week = internal global i32 0, align 4
@hf_ubx_nav_timegps_leaps = internal global i32 0, align 4
@hf_ubx_nav_timegps_valid = internal global i32 0, align 4
@hf_ubx_nav_timegps_tacc = internal global i32 0, align 4
@ett_ubx_nav_timegps = internal global i32 0, align 4
@ett_ubx_nav_timegps_tow = internal global i32 0, align 4
@ett_ubx_nav_timegps_valid = internal global i32 0, align 4
@.str.763 = private unnamed_addr constant [14 x i8] c"TOW: %d.%09ds\00", align 1
@ubx_nav_timegps_valid_fields = internal constant [4 x ptr] [ptr @hf_ubx_nav_timegps_towvalid, ptr @hf_ubx_nav_timegps_weekvalid, ptr @hf_ubx_nav_timegps_leapsvalid, ptr null], align 16

; Function Attrs: nounwind uwtable
define internal i32 @dissect_ubx_nav_timegps(ptr noundef %0, ptr noundef %1, ptr noundef %2, ptr noundef %3) #0 {
  %5 = alloca ptr, align 8
  %6 = alloca ptr, align 8
  %7 = alloca ptr, align 8
  %8 = alloca ptr, align 8
  %9 = alloca i32, align 4
  %10 = alloca i32, align 4
  %11 = alloca ptr, align 8
  %12 = alloca ptr, align 8
  %13 = alloca ptr, align 8
  store ptr %0, ptr %5, align 8
  store ptr %1, ptr %6, align 8
  store ptr %2, ptr %7, align 8
  store ptr %3, ptr %8, align 8
  %14 = load ptr, ptr %6, align 8
  %15 = getelementptr inbounds %struct._packet_info, ptr %14, i32 0, i32 1
  %16 = load ptr, ptr %15, align 8
  call void @col_set_str(ptr noundef %16, i32 noundef 34, ptr noundef @.str.356)
  %17 = load ptr, ptr %6, align 8
  %18 = getelementptr inbounds %struct._packet_info, ptr %17, i32 0, i32 1
  %19 = load ptr, ptr %18, align 8
  call void @col_clear(ptr noundef %19, i32 noundef 25)
  %20 = load ptr, ptr %7, align 8
  %21 = load i32, ptr @hf_ubx_nav_timegps, align 4
  %22 = load ptr, ptr %5, align 8
  %23 = call ptr @proto_tree_add_item(ptr noundef %20, i32 noundef %21, ptr noundef %22, i32 noundef 0, i32 noundef 16, i32 noundef 0)
  store ptr %23, ptr %11, align 8
  %24 = load ptr, ptr %11, align 8
  %25 = load i32, ptr @ett_ubx_nav_timegps, align 4
  %26 = call ptr @proto_item_add_subtree(ptr noundef %24, i32 noundef %25)
  store ptr %26, ptr %12, align 8
  %27 = load ptr, ptr %5, align 8
  %28 = call i32 @tvb_get_guint32(ptr noundef %27, i32 noundef 0, i32 noundef -2147483648)
  store i32 %28, ptr %9, align 4
  %29 = load ptr, ptr %5, align 8
  %30 = call i32 @tvb_get_gint32(ptr noundef %29, i32 noundef 4, i32 noundef -2147483648)
  store i32 %30, ptr %10, align 4
  %31 = load i32, ptr %9, align 4
  %32 = urem i32 %31, 1000
  %33 = mul i32 %32, 1000000
  %34 = load i32, ptr %10, align 4
  %35 = add i32 %33, %34
  store i32 %35, ptr %10, align 4
  %36 = load i32, ptr %9, align 4
  %37 = udiv i32 %36, 1000
  store i32 %37, ptr %9, align 4
  %38 = load i32, ptr %10, align 4
  %39 = icmp slt i32 %38, 0
  br i1 %39, label %40, label %45

40:                                               ; preds = %4
  %41 = load i32, ptr %9, align 4
  %42 = sub i32 %41, 1
  store i32 %42, ptr %9, align 4
  %43 = load i32, ptr %10, align 4
  %44 = add i32 1000000000, %43
  store i32 %44, ptr %10, align 4
  br label %45

45:                                               ; preds = %40, %4
  %46 = load ptr, ptr %12, align 8
  %47 = load ptr, ptr %5, align 8
  %48 = load i32, ptr @ett_ubx_nav_timegps_tow, align 4
  %49 = load i32, ptr %9, align 4
  %50 = load i32, ptr %10, align 4
  %51 = call ptr (ptr, ptr, i32, i32, i32, ptr, ptr, ...) @proto_tree_add_subtree_format(ptr noundef %46, ptr noundef %47, i32 noundef 0, i32 noundef 8, i32 noundef %48, ptr noundef null, ptr noundef @.str.763, i32 noundef %49, i32 noundef %50)
  store ptr %51, ptr %13, align 8
  %52 = load ptr, ptr %13, align 8
  %53 = load i32, ptr @hf_ubx_nav_timegps_itow, align 4
  %54 = load ptr, ptr %5, align 8
  %55 = call ptr @proto_tree_add_item(ptr noundef %52, i32 noundef %53, ptr noundef %54, i32 noundef 0, i32 noundef 4, i32 noundef -2147483648)
  %56 = load ptr, ptr %13, align 8
  %57 = load i32, ptr @hf_ubx_nav_timegps_ftow, align 4
  %58 = load ptr, ptr %5, align 8
  %59 = call ptr @proto_tree_add_item(ptr noundef %56, i32 noundef %57, ptr noundef %58, i32 noundef 4, i32 noundef 4, i32 noundef -2147483648)
  %60 = load ptr, ptr %12, align 8
  %61 = load i32, ptr @hf_ubx_nav_timegps_week, align 4
  %62 = load ptr, ptr %5, align 8
  %63 = call ptr @proto_tree_add_item(ptr noundef %60, i32 noundef %61, ptr noundef %62, i32 noundef 8, i32 noundef 2, i32 noundef -2147483648)
  %64 = load ptr, ptr %12, align 8
  %65 = load i32, ptr @hf_ubx_nav_timegps_leaps, align 4
  %66 = load ptr, ptr %5, align 8
  %67 = call ptr @proto_tree_add_item(ptr noundef %64, i32 noundef %65, ptr noundef %66, i32 noundef 10, i32 noundef 1, i32 noundef 0)
  %68 = load ptr, ptr %12, align 8
  %69 = load ptr, ptr %5, align 8
  %70 = load i32, ptr @hf_ubx_nav_timegps_valid, align 4
  %71 = load i32, ptr @ett_ubx_nav_timegps_valid, align 4
  %72 = call ptr @proto_tree_add_bitmask(ptr noundef %68, ptr noundef %69, i32 noundef 11, i32 noundef %70, i32 noundef %71, ptr noundef @ubx_nav_timegps_valid_fields, i32 noundef 0)
  %73 = load ptr, ptr %12, align 8
  %74 = load i32, ptr @hf_ubx_nav_timegps_tacc, align 4
  %75 = load ptr, ptr %5, align 8
  %76 = call ptr @proto_tree_add_item(ptr noundef %73, i32 noundef %74, ptr noundef %75, i32 noundef 12, i32 noundef 4, i32 noundef -2147483648)
  %77 = load ptr, ptr %5, align 8
  %78 = call i32 @tvb_captured_length(ptr noundef %77)
  ret i32 %78
}