; Function Attrs: nounwind uwtable
define internal i32 @dissect_ubx_nav_timegps(ptr noundef %0, ptr noundef readonly captures(none) %1, ptr noundef %2, ptr readnone captures(none) %3) #0 {
  %5 = getelementptr inbounds nuw i8, ptr %1, i64 8
  %6 = load ptr, ptr %5, align 8
  tail call void @col_set_str(ptr noundef %6, i32 noundef 34, ptr noundef nonnull @.str.356) #5
  %7 = load ptr, ptr %5, align 8
  tail call void @col_clear(ptr noundef %7, i32 noundef 25) #5
  %8 = load i32, ptr @hf_ubx_nav_timegps, align 4
  %9 = tail call ptr @proto_tree_add_item(ptr noundef %2, i32 noundef %8, ptr noundef %0, i32 noundef 0, i32 noundef 16, i32 noundef 0) #5
  %10 = load i32, ptr @ett_ubx_nav_timegps, align 4
  %11 = tail call ptr @proto_item_add_subtree(ptr noundef %9, i32 noundef %10) #5
  %12 = tail call i32 @tvb_get_guint32(ptr noundef %0, i32 noundef 0, i32 noundef -2147483648) #5
  %13 = tail call i32 @tvb_get_gint32(ptr noundef %0, i32 noundef 4, i32 noundef -2147483648) #5
  %14 = urem i32 %12, 1000
  %15 = mul nuw nsw i32 %14, 1000000
  %16 = add i32 %15, %13
  %17 = udiv i32 %12, 1000
  %18 = icmp slt i32 %16, 0
  %19 = add nsw i32 %16, 1000000000
  %.029 = select i1 %18, i32 %19, i32 %16
  %.lobit = ashr i32 %16, 31
  %.0 = add nsw i32 %.lobit, %17
  %20 = load i32, ptr @ett_ubx_nav_timegps_tow, align 4
  %21 = tail call ptr (ptr, ptr, i32, i32, i32, ptr, ptr, ...) @proto_tree_add_subtree_format(ptr noundef %11, ptr noundef %0, i32 noundef 0, i32 noundef 8, i32 noundef %20, ptr noundef null, ptr noundef nonnull @.str.763, i32 noundef %.0, i32 noundef %.029) #5
  %22 = load i32, ptr @hf_ubx_nav_timegps_itow, align 4
  %23 = tail call ptr @proto_tree_add_item(ptr noundef %21, i32 noundef %22, ptr noundef %0, i32 noundef 0, i32 noundef 4, i32 noundef -2147483648) #5
  %24 = load i32, ptr @hf_ubx_nav_timegps_ftow, align 4
  %25 = tail call ptr @proto_tree_add_item(ptr noundef %21, i32 noundef %24, ptr noundef %0, i32 noundef 4, i32 noundef 4, i32 noundef -2147483648) #5
  %26 = load i32, ptr @hf_ubx_nav_timegps_week, align 4
  %27 = tail call ptr @proto_tree_add_item(ptr noundef %11, i32 noundef %26, ptr noundef %0, i32 noundef 8, i32 noundef 2, i32 noundef -2147483648) #5
  %28 = load i32, ptr @hf_ubx_nav_timegps_leaps, align 4
  %29 = tail call ptr @proto_tree_add_item(ptr noundef %11, i32 noundef %28, ptr noundef %0, i32 noundef 10, i32 noundef 1, i32 noundef 0) #5
  %30 = load i32, ptr @hf_ubx_nav_timegps_valid, align 4
  %31 = load i32, ptr @ett_ubx_nav_timegps_valid, align 4
  %32 = tail call ptr @proto_tree_add_bitmask(ptr noundef %11, ptr noundef %0, i32 noundef 11, i32 noundef %30, i32 noundef %31, ptr noundef nonnull @ubx_nav_timegps_valid_fields, i32 noundef 0) #5
  %33 = load i32, ptr @hf_ubx_nav_timegps_tacc, align 4
  %34 = tail call ptr @proto_tree_add_item(ptr noundef %11, i32 noundef %33, ptr noundef %0, i32 noundef 12, i32 noundef 4, i32 noundef -2147483648) #5
  %35 = tail call i32 @tvb_captured_length(ptr noundef %0) #5
  ret i32 %35
}